; Function Attrs: mustprogress nofree norecurse nosync nounwind willreturn memory(argmem: readwrite) uwtable
define noundef i32 @_ZN6icu_7513BreakIterator16getRuleStatusVecEPiiR10UErrorCode(ptr nocapture nonnull readnone align 8 %this, ptr nocapture noundef writeonly %fillInVec, i32 noundef %capacity, ptr nocapture noundef nonnull align 4 dereferenceable(4) %status) unnamed_addr #15 align 2 {
entry:
  %0 = load i32, ptr %status, align 4
  %cmp.i = icmp slt i32 %0, 1
  br i1 %cmp.i, label %if.end, label %return

if.end:                                           ; preds = %entry
  %cmp = icmp slt i32 %capacity, 1
  br i1 %cmp, label %if.then2, label %if.end3

if.then2:                                         ; preds = %if.end
  store i32 15, ptr %status, align 4
  br label %return

if.end3:                                          ; preds = %if.end
  store i32 0, ptr %fillInVec, align 4
  br label %return

return:                                           ; preds = %entry, %if.end3, %if.then2
  %retval.0 = phi i32 [ 1, %if.then2 ], [ 1, %if.end3 ], [ 0, %entry ]
  ret i32 %retval.0
}